(dp0
(S'0000001000'
p1
I2
tp2
F11.98761429393569
s(S'1000000000'
p3
I0
tp4
F1.7695219243482505
s(S'1000000000'
p5
I1
tp6
F-4.414085564067973
s(S'1000000000'
p7
I2
tp8
F-2.982220318364265
s(S'0000000001'
p9
I0
tp10
F-23.83710865409024
s(S'0000000001'
p11
I2
tp12
F-35.62091599214048
s(S'0100000000'
p13
I0
tp14
F8.651676951278613
s(S'0000100000'
p15
I0
tp16
F23.569648589941078
s(S'0000000001'
p17
I1
tp18
F-28.28601599741214
s(S'0000010000'
p19
I2
tp20
F14.144428250467175
s(S'0001000000'
p21
I1
tp22
F13.939071728111712
s(S'0010000000'
p23
I1
tp24
F11.667036156138657
s.